target datalayout = "e-m:e-p270:32:32-p271:32:32-p272:64:64-i64:64-i128:128-f80:128-n8:16:32:64-S128"
target triple = "x86_64-pc-linux-gnu"

%struct.decNumber = type { i32, i32, i8, [1 x i16] }

@DECPOWERS = external constant [10 x i32], align 16
@multies = internal constant [5 x i32] [i32 131073, i32 26215, i32 5243, i32 1049, i32 210], align 16

; Function Attrs: nounwind uwtable
define internal i32 @decGetInt(ptr noundef %0) #0 {
  %2 = alloca i32, align 4
  %3 = alloca ptr, align 8
  %4 = alloca i32, align 4
  %5 = alloca ptr, align 8
  %6 = alloca i32, align 4
  %7 = alloca i32, align 4
  %8 = alloca i8, align 1
  %9 = alloca i32, align 4
  %10 = alloca i32, align 4
  %11 = alloca i32, align 4
  %12 = alloca i32, align 4
  store ptr %0, ptr %3, align 8, !tbaa !4
  call void @llvm.lifetime.start.p0(i64 4, ptr %4) #7
  call void @llvm.lifetime.start.p0(i64 8, ptr %5) #7
  call void @llvm.lifetime.start.p0(i64 4, ptr %6) #7
  call void @llvm.lifetime.start.p0(i64 4, ptr %7) #7
  %13 = load ptr, ptr %3, align 8, !tbaa !4
  %14 = getelementptr inbounds nuw %struct.decNumber, ptr %13, i32 0, i32 0
  %15 = load i32, ptr %14, align 4, !tbaa !18
  %16 = load ptr, ptr %3, align 8, !tbaa !4
  %17 = getelementptr inbounds nuw %struct.decNumber, ptr %16, i32 0, i32 1
  %18 = load i32, ptr %17, align 4, !tbaa !19
  %19 = add nsw i32 %15, %18
  store i32 %19, ptr %7, align 4, !tbaa !8
  call void @llvm.lifetime.start.p0(i64 1, ptr %8) #7
  %20 = load ptr, ptr %3, align 8, !tbaa !4
  %21 = getelementptr inbounds nuw %struct.decNumber, ptr %20, i32 0, i32 2
  %22 = load i8, ptr %21, align 4, !tbaa !10
  %23 = zext i8 %22 to i32
  %24 = and i32 %23, 128
  %25 = icmp ne i32 %24, 0
  %26 = zext i1 %25 to i32
  %27 = trunc i32 %26 to i8
  store i8 %27, ptr %8, align 1, !tbaa !25
  %28 = load ptr, ptr %3, align 8, !tbaa !4
  %29 = getelementptr inbounds nuw %struct.decNumber, ptr %28, i32 0, i32 3
  %30 = getelementptr inbounds [1 x i16], ptr %29, i64 0, i64 0
  %31 = load i16, ptr %30, align 2, !tbaa !14
  %32 = zext i16 %31 to i32
  %33 = icmp eq i32 %32, 0
  br i1 %33, label %34, label %47

34:                                               ; preds = %1
  %35 = load ptr, ptr %3, align 8, !tbaa !4
  %36 = getelementptr inbounds nuw %struct.decNumber, ptr %35, i32 0, i32 0
  %37 = load i32, ptr %36, align 4, !tbaa !18
  %38 = icmp eq i32 %37, 1
  br i1 %38, label %39, label %47

39:                                               ; preds = %34
  %40 = load ptr, ptr %3, align 8, !tbaa !4
  %41 = getelementptr inbounds nuw %struct.decNumber, ptr %40, i32 0, i32 2
  %42 = load i8, ptr %41, align 4, !tbaa !10
  %43 = zext i8 %42 to i32
  %44 = and i32 %43, 112
  %45 = icmp eq i32 %44, 0
  br i1 %45, label %46, label %47

46:                                               ; preds = %39
  store i32 0, ptr %2, align 4
  store i32 1, ptr %9, align 4
  br label %214

47:                                               ; preds = %39, %34, %1
  %48 = load ptr, ptr %3, align 8, !tbaa !4
  %49 = getelementptr inbounds nuw %struct.decNumber, ptr %48, i32 0, i32 3
  %50 = getelementptr inbounds [1 x i16], ptr %49, i64 0, i64 0
  store ptr %50, ptr %5, align 8, !tbaa !12
  store i32 0, ptr %4, align 4, !tbaa !8
  %51 = load ptr, ptr %3, align 8, !tbaa !4
  %52 = getelementptr inbounds nuw %struct.decNumber, ptr %51, i32 0, i32 1
  %53 = load i32, ptr %52, align 4, !tbaa !19
  %54 = icmp sge i32 %53, 0
  br i1 %54, label %55, label %59

55:                                               ; preds = %47
  %56 = load ptr, ptr %3, align 8, !tbaa !4
  %57 = getelementptr inbounds nuw %struct.decNumber, ptr %56, i32 0, i32 1
  %58 = load i32, ptr %57, align 4, !tbaa !19
  store i32 %58, ptr %6, align 4, !tbaa !8
  br label %120

59:                                               ; preds = %47
  call void @llvm.lifetime.start.p0(i64 4, ptr %10) #7
  %60 = load ptr, ptr %3, align 8, !tbaa !4
  %61 = getelementptr inbounds nuw %struct.decNumber, ptr %60, i32 0, i32 1
  %62 = load i32, ptr %61, align 4, !tbaa !19
  %63 = sub nsw i32 0, %62
  store i32 %63, ptr %10, align 4, !tbaa !8
  br label %64

64:                                               ; preds = %76, %59
  %65 = load i32, ptr %10, align 4, !tbaa !8
  %66 = icmp sge i32 %65, 3
  br i1 %66, label %67, label %79

67:                                               ; preds = %64
  %68 = load ptr, ptr %5, align 8, !tbaa !12
  %69 = load i16, ptr %68, align 2, !tbaa !14
  %70 = zext i16 %69 to i32
  %71 = icmp ne i32 %70, 0
  br i1 %71, label %72, label %73

72:                                               ; preds = %67
  store i32 -2147483648, ptr %2, align 4
  store i32 1, ptr %9, align 4
  br label %117

73:                                               ; preds = %67
  %74 = load i32, ptr %10, align 4, !tbaa !8
  %75 = sub nsw i32 %74, 3
  store i32 %75, ptr %10, align 4, !tbaa !8
  br label %76

76:                                               ; preds = %73
  %77 = load ptr, ptr %5, align 8, !tbaa !12
  %78 = getelementptr inbounds nuw i16, ptr %77, i32 1
  store ptr %78, ptr %5, align 8, !tbaa !12
  br label %64, !llvm.loop !81

79:                                               ; preds = %64
  %80 = load i32, ptr %10, align 4, !tbaa !8
  %81 = icmp eq i32 %80, 0
  br i1 %81, label %82, label %83

82:                                               ; preds = %79
  store i32 0, ptr %6, align 4, !tbaa !8
  br label %116

83:                                               ; preds = %79
  call void @llvm.lifetime.start.p0(i64 4, ptr %11) #7
  %84 = load ptr, ptr %5, align 8, !tbaa !12
  %85 = load i16, ptr %84, align 2, !tbaa !14
  %86 = zext i16 %85 to i32
  %87 = load i32, ptr %10, align 4, !tbaa !8
  %88 = lshr i32 %86, %87
  %89 = load i32, ptr %10, align 4, !tbaa !8
  %90 = sext i32 %89 to i64
  %91 = getelementptr inbounds [5 x i32], ptr @multies, i64 0, i64 %90
  %92 = load i32, ptr %91, align 4, !tbaa !8
  %93 = mul i32 %88, %92
  %94 = lshr i32 %93, 17
  store i32 %94, ptr %4, align 4, !tbaa !8
  %95 = load ptr, ptr %5, align 8, !tbaa !12
  %96 = load i16, ptr %95, align 2, !tbaa !14
  %97 = zext i16 %96 to i32
  %98 = load i32, ptr %4, align 4, !tbaa !8
  %99 = load i32, ptr %10, align 4, !tbaa !8
  %100 = sext i32 %99 to i64
  %101 = getelementptr inbounds [10 x i32], ptr @DECPOWERS, i64 0, i64 %100
  %102 = load i32, ptr %101, align 4, !tbaa !8
  %103 = mul i32 %98, %102
  %104 = sub i32 %97, %103
  store i32 %104, ptr %11, align 4, !tbaa !8
  %105 = load i32, ptr %11, align 4, !tbaa !8
  %106 = icmp ne i32 %105, 0
  br i1 %106, label %107, label %108

107:                                              ; preds = %83
  store i32 -2147483648, ptr %2, align 4
  store i32 1, ptr %9, align 4
  br label %113

108:                                              ; preds = %83
  %109 = load i32, ptr %10, align 4, !tbaa !8
  %110 = sub nsw i32 3, %109
  store i32 %110, ptr %6, align 4, !tbaa !8
  %111 = load ptr, ptr %5, align 8, !tbaa !12
  %112 = getelementptr inbounds nuw i16, ptr %111, i32 1
  store ptr %112, ptr %5, align 8, !tbaa !12
  store i32 0, ptr %9, align 4
  br label %113

113:                                              ; preds = %108, %107
  call void @llvm.lifetime.end.p0(i64 4, ptr %11) #7
  %114 = load i32, ptr %9, align 4
  switch i32 %114, label %117 [
    i32 0, label %115
  ]

115:                                              ; preds = %113
  br label %116

116:                                              ; preds = %115, %82
  store i32 0, ptr %9, align 4
  br label %117

117:                                              ; preds = %116, %113, %72
  call void @llvm.lifetime.end.p0(i64 4, ptr %10) #7
  %118 = load i32, ptr %9, align 4
  switch i32 %118, label %214 [
    i32 0, label %119
  ]

119:                                              ; preds = %117
  br label %120

120:                                              ; preds = %119, %55
  %121 = load i32, ptr %6, align 4, !tbaa !8
  %122 = icmp eq i32 %121, 0
  br i1 %122, label %123, label %131

123:                                              ; preds = %120
  %124 = load ptr, ptr %5, align 8, !tbaa !12
  %125 = load i16, ptr %124, align 2, !tbaa !14
  %126 = zext i16 %125 to i32
  store i32 %126, ptr %4, align 4, !tbaa !8
  %127 = load i32, ptr %6, align 4, !tbaa !8
  %128 = add nsw i32 %127, 3
  store i32 %128, ptr %6, align 4, !tbaa !8
  %129 = load ptr, ptr %5, align 8, !tbaa !12
  %130 = getelementptr inbounds nuw i16, ptr %129, i32 1
  store ptr %130, ptr %5, align 8, !tbaa !12
  br label %131

131:                                              ; preds = %123, %120
  %132 = load i32, ptr %7, align 4, !tbaa !8
  %133 = icmp slt i32 %132, 11
  br i1 %133, label %134, label %197

134:                                              ; preds = %131
  call void @llvm.lifetime.start.p0(i64 4, ptr %12) #7
  %135 = load i32, ptr %4, align 4, !tbaa !8
  store i32 %135, ptr %12, align 4, !tbaa !8
  br label %136

136:                                              ; preds = %153, %134
  %137 = load i32, ptr %6, align 4, !tbaa !8
  %138 = load i32, ptr %7, align 4, !tbaa !8
  %139 = icmp slt i32 %137, %138
  br i1 %139, label %140, label %156

140:                                              ; preds = %136
  %141 = load ptr, ptr %5, align 8, !tbaa !12
  %142 = load i16, ptr %141, align 2, !tbaa !14
  %143 = zext i16 %142 to i32
  %144 = load i32, ptr %6, align 4, !tbaa !8
  %145 = sext i32 %144 to i64
  %146 = getelementptr inbounds [10 x i32], ptr @DECPOWERS, i64 0, i64 %145
  %147 = load i32, ptr %146, align 4, !tbaa !8
  %148 = mul i32 %143, %147
  %149 = load i32, ptr %4, align 4, !tbaa !8
  %150 = add i32 %149, %148
  store i32 %150, ptr %4, align 4, !tbaa !8
  %151 = load i32, ptr %6, align 4, !tbaa !8
  %152 = add nsw i32 %151, 3
  store i32 %152, ptr %6, align 4, !tbaa !8
  br label %153

153:                                              ; preds = %140
  %154 = load ptr, ptr %5, align 8, !tbaa !12
  %155 = getelementptr inbounds nuw i16, ptr %154, i32 1
  store ptr %155, ptr %5, align 8, !tbaa !12
  br label %136, !llvm.loop !82

156:                                              ; preds = %136
  %157 = load i32, ptr %7, align 4, !tbaa !8
  %158 = icmp eq i32 %157, 10
  br i1 %158, label %159, label %196

159:                                              ; preds = %156
  %160 = load i32, ptr %4, align 4, !tbaa !8
  %161 = load i32, ptr %6, align 4, !tbaa !8
  %162 = sub nsw i32 %161, 3
  %163 = sext i32 %162 to i64
  %164 = getelementptr inbounds [10 x i32], ptr @DECPOWERS, i64 0, i64 %163
  %165 = load i32, ptr %164, align 4, !tbaa !8
  %166 = sdiv i32 %160, %165
  %167 = load ptr, ptr %5, align 8, !tbaa !12
  %168 = getelementptr inbounds i16, ptr %167, i64 -1
  %169 = load i16, ptr %168, align 2, !tbaa !14
  %170 = zext i16 %169 to i32
  %171 = icmp ne i32 %166, %170
  br i1 %171, label %172, label %173

172:                                              ; preds = %159
  store i32 11, ptr %7, align 4, !tbaa !8
  br label %190

173:                                              ; preds = %159
  %174 = load i8, ptr %8, align 1, !tbaa !25
  %175 = zext i8 %174 to i32
  %176 = icmp ne i32 %175, 0
  br i1 %176, label %177, label %181

177:                                              ; preds = %173
  %178 = load i32, ptr %4, align 4, !tbaa !8
  %179 = icmp sgt i32 %178, 1999999997
  br i1 %179, label %180, label %181

180:                                              ; preds = %177
  store i32 11, ptr %7, align 4, !tbaa !8
  br label %189

181:                                              ; preds = %177, %173
  %182 = load i8, ptr %8, align 1, !tbaa !25
  %183 = icmp ne i8 %182, 0
  br i1 %183, label %188, label %184

184:                                              ; preds = %181
  %185 = load i32, ptr %4, align 4, !tbaa !8
  %186 = icmp sgt i32 %185, 999999999
  br i1 %186, label %187, label %188

187:                                              ; preds = %184
  store i32 11, ptr %7, align 4, !tbaa !8
  br label %188

188:                                              ; preds = %187, %184, %181
  br label %189

189:                                              ; preds = %188, %180
  br label %190

190:                                              ; preds = %189, %172
  %191 = load i32, ptr %7, align 4, !tbaa !8
  %192 = icmp eq i32 %191, 11
  br i1 %192, label %193, label %195

193:                                              ; preds = %190
  %194 = load i32, ptr %12, align 4, !tbaa !8
  store i32 %194, ptr %4, align 4, !tbaa !8
  br label %195

195:                                              ; preds = %193, %190
  br label %196

196:                                              ; preds = %195, %156
  call void @llvm.lifetime.end.p0(i64 4, ptr %12) #7
  br label %197

197:                                              ; preds = %196, %131
  %198 = load i32, ptr %7, align 4, !tbaa !8
  %199 = icmp sgt i32 %198, 10
  br i1 %199, label %200, label %206

200:                                              ; preds = %197
  %201 = load i32, ptr %4, align 4, !tbaa !8
  %202 = and i32 %201, 1
  %203 = icmp ne i32 %202, 0
  br i1 %203, label %204, label %205

204:                                              ; preds = %200
  store i32 -2147483645, ptr %2, align 4
  store i32 1, ptr %9, align 4
  br label %214

205:                                              ; preds = %200
  store i32 -2147483646, ptr %2, align 4
  store i32 1, ptr %9, align 4
  br label %214

206:                                              ; preds = %197
  %207 = load i8, ptr %8, align 1, !tbaa !25
  %208 = icmp ne i8 %207, 0
  br i1 %208, label %209, label %212

209:                                              ; preds = %206
  %210 = load i32, ptr %4, align 4, !tbaa !8
  %211 = sub nsw i32 0, %210
  store i32 %211, ptr %4, align 4, !tbaa !8
  br label %212

212:                                              ; preds = %209, %206
  %213 = load i32, ptr %4, align 4, !tbaa !8
  store i32 %213, ptr %2, align 4
  store i32 1, ptr %9, align 4
  br label %214

214:                                              ; preds = %212, %205, %204, %117, %46
  call void @llvm.lifetime.end.p0(i64 1, ptr %8) #7
  call void @llvm.lifetime.end.p0(i64 4, ptr %7) #7
  call void @llvm.lifetime.end.p0(i64 4, ptr %6) #7
  call void @llvm.lifetime.end.p0(i64 8, ptr %5) #7
  call void @llvm.lifetime.end.p0(i64 4, ptr %4) #7
  %215 = load i32, ptr %2, align 4
  ret i32 %215
}